target datalayout = "e-m:e-p270:32:32-p271:32:32-p272:64:64-i64:64-i128:128-f80:128-n8:16:32:64-S128"
target triple = "x86_64-pc-linux-gnu"

%struct.translation_ctx_st = type { ptr, i32, i32, ptr, i32, i32, ptr, i64, ptr, ptr, [50 x i8], ptr, ptr, i64 }

@.str = private unnamed_addr constant [46 x i8] c"../openssl/crypto/evp/ctrl_params_translate.c\00", align 1
@.str.84 = private unnamed_addr constant [9 x i8] c"explicit\00", align 1
@.str.85 = private unnamed_addr constant [12 x i8] c"named_curve\00", align 1
@__func__.fix_ec_param_enc = private unnamed_addr constant [17 x i8] c"fix_ec_param_enc\00", align 1

; Function Attrs: nounwind uwtable
define internal i32 @fix_ec_param_enc(i32 noundef %0, ptr noundef %1, ptr noundef %2) #0 {
  %4 = alloca i32, align 4
  %5 = alloca i32, align 4
  %6 = alloca ptr, align 8
  %7 = alloca ptr, align 8
  %8 = alloca i32, align 4
  %9 = alloca i32, align 4
  store i32 %0, ptr %5, align 4, !tbaa !8
  store ptr %1, ptr %6, align 8, !tbaa !11
  store ptr %2, ptr %7, align 8, !tbaa !43
  call void @llvm.lifetime.start.p0(i64 4, ptr %8) #9
  %10 = load i32, ptr %5, align 4, !tbaa !8
  %11 = load ptr, ptr %6, align 8, !tbaa !11
  %12 = load ptr, ptr %7, align 8, !tbaa !43
  %13 = call i32 @default_check(i32 noundef %10, ptr noundef %11, ptr noundef %12)
  store i32 %13, ptr %8, align 4, !tbaa !8
  %14 = icmp sle i32 %13, 0
  br i1 %14, label %15, label %17

15:                                               ; preds = %3
  %16 = load i32, ptr %8, align 4, !tbaa !8
  store i32 %16, ptr %4, align 4
  store i32 1, ptr %9, align 4
  br label %83

17:                                               ; preds = %3
  %18 = load ptr, ptr %7, align 8, !tbaa !43
  %19 = getelementptr inbounds nuw %struct.translation_ctx_st, ptr %18, i32 0, i32 1
  %20 = load i32, ptr %19, align 8, !tbaa !35
  %21 = icmp ne i32 %20, 2
  br i1 %21, label %22, label %23

22:                                               ; preds = %17
  store i32 0, ptr %4, align 4
  store i32 1, ptr %9, align 4
  br label %83

23:                                               ; preds = %17
  %24 = load i32, ptr %5, align 4, !tbaa !8
  %25 = icmp eq i32 %24, 1
  br i1 %25, label %26, label %40

26:                                               ; preds = %23
  %27 = load ptr, ptr %7, align 8, !tbaa !43
  %28 = getelementptr inbounds nuw %struct.translation_ctx_st, ptr %27, i32 0, i32 5
  %29 = load i32, ptr %28, align 4, !tbaa !39
  switch i32 %29, label %36 [
    i32 0, label %30
    i32 1, label %33
  ]

30:                                               ; preds = %26
  %31 = load ptr, ptr %7, align 8, !tbaa !43
  %32 = getelementptr inbounds nuw %struct.translation_ctx_st, ptr %31, i32 0, i32 6
  store ptr @.str.84, ptr %32, align 8, !tbaa !40
  br label %37

33:                                               ; preds = %26
  %34 = load ptr, ptr %7, align 8, !tbaa !43
  %35 = getelementptr inbounds nuw %struct.translation_ctx_st, ptr %34, i32 0, i32 6
  store ptr @.str.85, ptr %35, align 8, !tbaa !40
  br label %37

36:                                               ; preds = %26
  store i32 -2, ptr %8, align 4, !tbaa !8
  br label %77

37:                                               ; preds = %33, %30
  %38 = load ptr, ptr %7, align 8, !tbaa !43
  %39 = getelementptr inbounds nuw %struct.translation_ctx_st, ptr %38, i32 0, i32 5
  store i32 0, ptr %39, align 4, !tbaa !39
  br label %40

40:                                               ; preds = %37, %23
  %41 = load i32, ptr %5, align 4, !tbaa !8
  %42 = load ptr, ptr %6, align 8, !tbaa !11
  %43 = load ptr, ptr %7, align 8, !tbaa !43
  %44 = call i32 @default_fixup_args(i32 noundef %41, ptr noundef %42, ptr noundef %43)
  store i32 %44, ptr %8, align 4, !tbaa !8
  %45 = icmp sle i32 %44, 0
  br i1 %45, label %46, label %48

46:                                               ; preds = %40
  %47 = load i32, ptr %8, align 4, !tbaa !8
  store i32 %47, ptr %4, align 4
  store i32 1, ptr %9, align 4
  br label %83

48:                                               ; preds = %40
  %49 = load i32, ptr %5, align 4, !tbaa !8
  %50 = icmp eq i32 %49, 7
  br i1 %50, label %51, label %76

51:                                               ; preds = %48
  %52 = load ptr, ptr %7, align 8, !tbaa !43
  %53 = getelementptr inbounds nuw %struct.translation_ctx_st, ptr %52, i32 0, i32 6
  %54 = load ptr, ptr %53, align 8, !tbaa !40
  %55 = call i32 @strcmp(ptr noundef %54, ptr noundef @.str.84) #10
  %56 = icmp eq i32 %55, 0
  br i1 %56, label %57, label %60

57:                                               ; preds = %51
  %58 = load ptr, ptr %7, align 8, !tbaa !43
  %59 = getelementptr inbounds nuw %struct.translation_ctx_st, ptr %58, i32 0, i32 5
  store i32 0, ptr %59, align 4, !tbaa !39
  br label %73

60:                                               ; preds = %51
  %61 = load ptr, ptr %7, align 8, !tbaa !43
  %62 = getelementptr inbounds nuw %struct.translation_ctx_st, ptr %61, i32 0, i32 6
  %63 = load ptr, ptr %62, align 8, !tbaa !40
  %64 = call i32 @strcmp(ptr noundef %63, ptr noundef @.str.85) #10
  %65 = icmp eq i32 %64, 0
  br i1 %65, label %66, label %69

66:                                               ; preds = %60
  %67 = load ptr, ptr %7, align 8, !tbaa !43
  %68 = getelementptr inbounds nuw %struct.translation_ctx_st, ptr %67, i32 0, i32 5
  store i32 1, ptr %68, align 4, !tbaa !39
  br label %72

69:                                               ; preds = %60
  store i32 -2, ptr %8, align 4, !tbaa !8
  %70 = load ptr, ptr %7, align 8, !tbaa !43
  %71 = getelementptr inbounds nuw %struct.translation_ctx_st, ptr %70, i32 0, i32 5
  store i32 -2, ptr %71, align 4, !tbaa !39
  br label %72

72:                                               ; preds = %69, %66
  br label %73

73:                                               ; preds = %72, %57
  %74 = load ptr, ptr %7, align 8, !tbaa !43
  %75 = getelementptr inbounds nuw %struct.translation_ctx_st, ptr %74, i32 0, i32 6
  store ptr null, ptr %75, align 8, !tbaa !40
  br label %76

76:                                               ; preds = %73, %48
  br label %77

77:                                               ; preds = %76, %36
  %78 = load i32, ptr %8, align 4, !tbaa !8
  %79 = icmp eq i32 %78, -2
  br i1 %79, label %80, label %81

80:                                               ; preds = %77
  call void @ERR_new()
  call void @ERR_set_debug(ptr noundef @.str, i32 noundef 1131, ptr noundef @__func__.fix_ec_param_enc)
  call void (i32, i32, ptr, ...) @ERR_set_error(i32 noundef 6, i32 noundef 147, ptr noundef null)
  br label %81

81:                                               ; preds = %80, %77
  %82 = load i32, ptr %8, align 4, !tbaa !8
  store i32 %82, ptr %4, align 4
  store i32 1, ptr %9, align 4
  br label %83

83:                                               ; preds = %81, %46, %22, %15
  call void @llvm.lifetime.end.p0(i64 4, ptr %8) #9
  %84 = load i32, ptr %4, align 4
  ret i32 %84
}