; Function Attrs: nounwind uwtable
define internal i32 @fix_ec_param_enc(i32 noundef %0, ptr noundef captures(address_is_null) %1, ptr noundef %2) #0 {
  %4 = tail call fastcc i32 @default_check(i32 noundef %0, ptr noundef %1)
  %5 = icmp slt i32 %4, 1
  br i1 %5, label %.thread33, label %6

6:                                                ; preds = %3
  %7 = getelementptr inbounds nuw i8, ptr %2, i64 8
  %8 = load i32, ptr %7, align 8, !tbaa !29
  %.not = icmp eq i32 %8, 2
  br i1 %.not, label %9, label %.thread33

9:                                                ; preds = %6
  %10 = icmp eq i32 %0, 1
  br i1 %10, label %11, label %15

11:                                               ; preds = %9
  %12 = getelementptr inbounds nuw i8, ptr %2, i64 28
  %13 = load i32, ptr %12, align 4, !tbaa !34
  switch i32 %13, label %.thread35 [
    i32 0, label %.thread
    i32 1, label %14
  ]

14:                                               ; preds = %11
  br label %.thread

15:                                               ; preds = %9
  %16 = tail call i32 @default_fixup_args(i32 noundef %0, ptr noundef %1, ptr noundef nonnull %2)
  %17 = icmp sgt i32 %16, 0
  %18 = icmp eq i32 %0, 7
  %or.cond = and i1 %18, %17
  br i1 %or.cond, label %21, label %.thread33

.thread:                                          ; preds = %11, %14
  %.str.84.sink = phi ptr [ @.str.85, %14 ], [ @.str.84, %11 ]
  %19 = getelementptr inbounds nuw i8, ptr %2, i64 32
  store ptr %.str.84.sink, ptr %19, align 8, !tbaa !35
  store i32 0, ptr %12, align 4, !tbaa !34
  %20 = tail call i32 @default_fixup_args(i32 noundef 1, ptr noundef %1, ptr noundef nonnull %2)
  br label %.thread33

21:                                               ; preds = %15
  %22 = getelementptr inbounds nuw i8, ptr %2, i64 32
  %23 = load ptr, ptr %22, align 8, !tbaa !35
  %24 = tail call i32 @strcmp(ptr noundef nonnull dereferenceable(1) %23, ptr noundef nonnull dereferenceable(9) @.str.84) #9
  %25 = icmp eq i32 %24, 0
  br i1 %25, label %26, label %28

26:                                               ; preds = %21
  %27 = getelementptr inbounds nuw i8, ptr %2, i64 28
  store i32 0, ptr %27, align 4, !tbaa !34
  br label %.thread39

28:                                               ; preds = %21
  %29 = tail call i32 @strcmp(ptr noundef nonnull dereferenceable(1) %23, ptr noundef nonnull dereferenceable(12) @.str.85) #9
  %30 = icmp eq i32 %29, 0
  %31 = getelementptr inbounds nuw i8, ptr %2, i64 28
  br i1 %30, label %32, label %33

32:                                               ; preds = %28
  store i32 1, ptr %31, align 4, !tbaa !34
  br label %.thread39

.thread39:                                        ; preds = %26, %32
  store ptr null, ptr %22, align 8, !tbaa !35
  br label %.thread33

33:                                               ; preds = %28
  store i32 -2, ptr %31, align 4, !tbaa !34
  store ptr null, ptr %22, align 8, !tbaa !35
  br label %.thread35

.thread35:                                        ; preds = %11, %33
  tail call void @ERR_new() #8
  tail call void @ERR_set_debug(ptr noundef nonnull @.str, i32 noundef 1131, ptr noundef nonnull @__func__.fix_ec_param_enc) #8
  tail call void (i32, i32, ptr, ...) @ERR_set_error(i32 noundef 6, i32 noundef 147, ptr noundef null) #8
  br label %.thread33

.thread33:                                        ; preds = %.thread, %.thread39, %.thread35, %15, %6, %3
  %.023 = phi i32 [ %4, %3 ], [ 0, %6 ], [ %16, %15 ], [ -2, %.thread35 ], [ %16, %.thread39 ], [ %20, %.thread ]
  ret i32 %.023
}